; Function Attrs: mustprogress uwtable
define noundef zeroext i1 @_ZN6duckdb17DictionaryDecoder9CanFilterERKNS_11TableFilterE(ptr noundef nonnull readonly align 8 captures(none) dereferenceable(144) %0, ptr noundef nonnull align 8 dereferenceable(9) %1) local_unnamed_addr #4 align 2 {
  %3 = getelementptr inbounds nuw i8, ptr %0, i64 72
  %4 = load i64, ptr %3, align 8, !tbaa !307
  %5 = icmp eq i64 %4, 0
  br i1 %5, label %8, label %6

6:                                                ; preds = %2
  %7 = tail call noundef zeroext i1 @_ZN6duckdb24DictionarySupportsFilterERKNS_11TableFilterE(ptr noundef nonnull align 8 dereferenceable(9) %1)
  br label %8

8:                                                ; preds = %6, %2
  %.0 = phi i1 [ false, %2 ], [ %7, %6 ]
  ret i1 %.0
}